; Function Attrs: nounwind uwtable
define hidden void @zim_SessionHandler_open(ptr nocapture noundef readonly %0, ptr nocapture noundef writeonly %1) local_unnamed_addr #0 {
  %3 = alloca ptr, align 8
  %4 = alloca ptr, align 8
  %5 = alloca i64, align 8
  %6 = alloca i64, align 8
  %7 = alloca [1 x %struct.__jmp_buf_tag], align 16
  store ptr null, ptr %3, align 8
  store ptr null, ptr %4, align 8
  %8 = getelementptr inbounds i8, ptr %0, i64 44
  %9 = load i32, ptr %8, align 4
  %10 = call i32 (i32, ptr, ...) @zend_parse_parameters(i32 noundef %9, ptr noundef nonnull @.str, ptr noundef nonnull %3, ptr noundef nonnull %5, ptr noundef nonnull %4, ptr noundef nonnull %6) #5
  %11 = icmp eq i32 %10, -1
  br i1 %11, label %12, label %15

12:                                               ; preds = %2
  %13 = load ptr, ptr getelementptr inbounds (%struct._zend_executor_globals, ptr @executor_globals, i64 0, i32 50), align 8
  %14 = icmp ne ptr %13, null
  call void @llvm.assume(i1 %14)
  br label %41

15:                                               ; preds = %2
  %16 = load i32, ptr getelementptr inbounds (%struct._php_ps_globals, ptr @ps_globals, i64 0, i32 14), align 8
  %.not = icmp eq i32 %16, 2
  br i1 %.not, label %20, label %17

17:                                               ; preds = %15
  call void (ptr, ptr, ...) @zend_throw_error(ptr noundef null, ptr noundef nonnull @.str.1) #5
  %18 = load ptr, ptr getelementptr inbounds (%struct._zend_executor_globals, ptr @executor_globals, i64 0, i32 50), align 8
  %19 = icmp ne ptr %18, null
  call void @llvm.assume(i1 %19)
  br label %41

20:                                               ; preds = %15
  %21 = load ptr, ptr getelementptr inbounds (%struct._php_ps_globals, ptr @ps_globals, i64 0, i32 12), align 8
  %22 = icmp eq ptr %21, null
  br i1 %22, label %23, label %26

23:                                               ; preds = %20
  call void (ptr, ptr, ...) @zend_throw_error(ptr noundef null, ptr noundef nonnull @.str.2) #5
  %24 = load ptr, ptr getelementptr inbounds (%struct._zend_executor_globals, ptr @executor_globals, i64 0, i32 50), align 8
  %25 = icmp ne ptr %24, null
  call void @llvm.assume(i1 %25)
  br label %41

26:                                               ; preds = %20
  store i8 1, ptr getelementptr inbounds (%struct._php_ps_globals, ptr @ps_globals, i64 0, i32 27), align 1
  %27 = load ptr, ptr getelementptr inbounds (%struct._zend_executor_globals, ptr @executor_globals, i64 0, i32 7), align 8
  store ptr %7, ptr getelementptr inbounds (%struct._zend_executor_globals, ptr @executor_globals, i64 0, i32 7), align 8
  %28 = call i32 @__sigsetjmp(ptr noundef nonnull %7, i32 noundef 0) #6
  %29 = icmp eq i32 %28, 0
  br i1 %29, label %30, label %40

30:                                               ; preds = %26
  %31 = load ptr, ptr getelementptr inbounds (%struct._php_ps_globals, ptr @ps_globals, i64 0, i32 12), align 8
  %32 = getelementptr inbounds i8, ptr %31, i64 8
  %33 = load ptr, ptr %32, align 8
  %34 = load ptr, ptr %3, align 8
  %35 = load ptr, ptr %4, align 8
  %36 = call i32 %33(ptr noundef nonnull getelementptr inbounds (%struct._php_ps_globals, ptr @ps_globals, i64 0, i32 13), ptr noundef %34, ptr noundef %35) #5
  store ptr %27, ptr getelementptr inbounds (%struct._zend_executor_globals, ptr @executor_globals, i64 0, i32 7), align 8
  %37 = icmp eq i32 %36, 0
  %38 = select i1 %37, i32 3, i32 2
  %39 = getelementptr inbounds i8, ptr %1, i64 8
  store i32 %38, ptr %39, align 8
  br label %41

40:                                               ; preds = %26
  store ptr %27, ptr getelementptr inbounds (%struct._zend_executor_globals, ptr @executor_globals, i64 0, i32 7), align 8
  store i32 1, ptr getelementptr inbounds (%struct._php_ps_globals, ptr @ps_globals, i64 0, i32 14), align 8
  call void @_zend_bailout(ptr noundef nonnull @.str.3, i32 noundef 56) #7
  unreachable

41:                                               ; preds = %30, %23, %17, %12
  ret void
}